target datalayout = "e-m:e-p270:32:32-p271:32:32-p272:64:64-i64:64-i128:128-f80:128-n8:16:32:64-S128"
target triple = "x86_64-pc-linux-gnu"

%struct.lua_TValue = type { %union.Value, [1 x i32], i32 }
%union.Value = type { ptr }
%struct.TString = type { i8, i8, i8, i16, ptr, i32, i32, [1 x i8] }

; Function Attrs: mustprogress nounwind uwtable
define hidden noundef i32 @_Z11luaV_strcmpPK7TStringS1_(ptr noundef %0, ptr noundef %1) #3 {
  %3 = alloca i32, align 4
  %4 = alloca ptr, align 8
  %5 = alloca ptr, align 8
  %6 = alloca ptr, align 8
  %7 = alloca ptr, align 8
  %8 = alloca i32, align 4
  %9 = alloca i64, align 8
  %10 = alloca i64, align 8
  %11 = alloca i64, align 8
  %12 = alloca i32, align 4
  store ptr %0, ptr %4, align 8, !tbaa !37
  store ptr %1, ptr %5, align 8, !tbaa !37
  %13 = load ptr, ptr %4, align 8, !tbaa !37
  %14 = load ptr, ptr %5, align 8, !tbaa !37
  %15 = icmp eq ptr %13, %14
  br i1 %15, label %16, label %17

16:                                               ; preds = %2
  store i32 0, ptr %3, align 4
  br label %79

17:                                               ; preds = %2
  call void @llvm.lifetime.start.p0(i64 8, ptr %6) #11
  %18 = load ptr, ptr %4, align 8, !tbaa !37
  %19 = getelementptr inbounds nuw %struct.TString, ptr %18, i32 0, i32 7
  %20 = getelementptr inbounds [1 x i8], ptr %19, i64 0, i64 0
  store ptr %20, ptr %6, align 8, !tbaa !17
  call void @llvm.lifetime.start.p0(i64 8, ptr %7) #11
  %21 = load ptr, ptr %5, align 8, !tbaa !37
  %22 = getelementptr inbounds nuw %struct.TString, ptr %21, i32 0, i32 7
  %23 = getelementptr inbounds [1 x i8], ptr %22, i64 0, i64 0
  store ptr %23, ptr %7, align 8, !tbaa !17
  %24 = load ptr, ptr %6, align 8, !tbaa !17
  %25 = load i8, ptr %24, align 1, !tbaa !12
  %26 = sext i8 %25 to i32
  %27 = load ptr, ptr %7, align 8, !tbaa !17
  %28 = load i8, ptr %27, align 1, !tbaa !12
  %29 = sext i8 %28 to i32
  %30 = icmp ne i32 %26, %29
  br i1 %30, label %31, label %39

31:                                               ; preds = %17
  %32 = load ptr, ptr %6, align 8, !tbaa !17
  %33 = load i8, ptr %32, align 1, !tbaa !12
  %34 = zext i8 %33 to i32
  %35 = load ptr, ptr %7, align 8, !tbaa !17
  %36 = load i8, ptr %35, align 1, !tbaa !12
  %37 = zext i8 %36 to i32
  %38 = sub nsw i32 %34, %37
  store i32 %38, ptr %3, align 4
  store i32 1, ptr %8, align 4
  br label %78

39:                                               ; preds = %17
  call void @llvm.lifetime.start.p0(i64 8, ptr %9) #11
  %40 = load ptr, ptr %4, align 8, !tbaa !37
  %41 = getelementptr inbounds nuw %struct.TString, ptr %40, i32 0, i32 6
  %42 = load i32, ptr %41, align 4, !tbaa !48
  %43 = zext i32 %42 to i64
  store i64 %43, ptr %9, align 8, !tbaa !42
  call void @llvm.lifetime.start.p0(i64 8, ptr %10) #11
  %44 = load ptr, ptr %5, align 8, !tbaa !37
  %45 = getelementptr inbounds nuw %struct.TString, ptr %44, i32 0, i32 6
  %46 = load i32, ptr %45, align 4, !tbaa !48
  %47 = zext i32 %46 to i64
  store i64 %47, ptr %10, align 8, !tbaa !42
  call void @llvm.lifetime.start.p0(i64 8, ptr %11) #11
  %48 = load i64, ptr %9, align 8, !tbaa !42
  %49 = load i64, ptr %10, align 8, !tbaa !42
  %50 = icmp ult i64 %48, %49
  br i1 %50, label %51, label %53

51:                                               ; preds = %39
  %52 = load i64, ptr %9, align 8, !tbaa !42
  br label %55

53:                                               ; preds = %39
  %54 = load i64, ptr %10, align 8, !tbaa !42
  br label %55

55:                                               ; preds = %53, %51
  %56 = phi i64 [ %52, %51 ], [ %54, %53 ]
  store i64 %56, ptr %11, align 8, !tbaa !42
  call void @llvm.lifetime.start.p0(i64 4, ptr %12) #11
  %57 = load ptr, ptr %6, align 8, !tbaa !17
  %58 = load ptr, ptr %7, align 8, !tbaa !17
  %59 = load i64, ptr %11, align 8, !tbaa !42
  %60 = call i32 @memcmp(ptr noundef %57, ptr noundef %58, i64 noundef %59) #13
  store i32 %60, ptr %12, align 4, !tbaa !19
  %61 = load i32, ptr %12, align 4, !tbaa !19
  %62 = icmp ne i32 %61, 0
  br i1 %62, label %63, label %65

63:                                               ; preds = %55
  %64 = load i32, ptr %12, align 4, !tbaa !19
  store i32 %64, ptr %3, align 4
  store i32 1, ptr %8, align 4
  br label %77

65:                                               ; preds = %55
  %66 = load i64, ptr %9, align 8, !tbaa !42
  %67 = load i64, ptr %10, align 8, !tbaa !42
  %68 = icmp eq i64 %66, %67
  br i1 %68, label %69, label %70

69:                                               ; preds = %65
  br label %75

70:                                               ; preds = %65
  %71 = load i64, ptr %9, align 8, !tbaa !42
  %72 = load i64, ptr %10, align 8, !tbaa !42
  %73 = icmp ult i64 %71, %72
  %74 = select i1 %73, i32 -1, i32 1
  br label %75

75:                                               ; preds = %70, %69
  %76 = phi i32 [ 0, %69 ], [ %74, %70 ]
  store i32 %76, ptr %3, align 4
  store i32 1, ptr %8, align 4
  br label %77

77:                                               ; preds = %75, %63
  call void @llvm.lifetime.end.p0(i64 4, ptr %12) #11
  call void @llvm.lifetime.end.p0(i64 8, ptr %11) #11
  call void @llvm.lifetime.end.p0(i64 8, ptr %10) #11
  call void @llvm.lifetime.end.p0(i64 8, ptr %9) #11
  br label %78

78:                                               ; preds = %77, %31
  call void @llvm.lifetime.end.p0(i64 8, ptr %7) #11
  call void @llvm.lifetime.end.p0(i64 8, ptr %6) #11
  br label %79

79:                                               ; preds = %78, %16
  %80 = load i32, ptr %3, align 4
  ret i32 %80
}

; Function Attrs: mustprogress uwtable
define hidden noundef i32 @_Z14luaV_lessequalP9lua_StatePK10lua_TValueS3_(ptr noundef %0, ptr noundef %1, ptr noundef %2) #0 {
  %4 = alloca i32, align 4
  %5 = alloca ptr, align 8
  %6 = alloca ptr, align 8
  %7 = alloca ptr, align 8
  %8 = alloca i32, align 4
  %9 = alloca i32, align 4
  store ptr %0, ptr %5, align 8, !tbaa !15
  store ptr %1, ptr %6, align 8, !tbaa !4
  store ptr %2, ptr %7, align 8, !tbaa !4
  call void @llvm.lifetime.start.p0(i64 4, ptr %8) #11
  %10 = load ptr, ptr %6, align 8, !tbaa !4
  %11 = getelementptr inbounds nuw %struct.lua_TValue, ptr %10, i32 0, i32 2
  %12 = load i32, ptr %11, align 4, !tbaa !9
  %13 = load ptr, ptr %7, align 8, !tbaa !4
  %14 = getelementptr inbounds nuw %struct.lua_TValue, ptr %13, i32 0, i32 2
  %15 = load i32, ptr %14, align 4, !tbaa !9
  %16 = icmp ne i32 %12, %15
  br i1 %16, label %17, label %21

17:                                               ; preds = %3
  %18 = load ptr, ptr %5, align 8, !tbaa !15
  %19 = load ptr, ptr %6, align 8, !tbaa !4
  %20 = load ptr, ptr %7, align 8, !tbaa !4
  call void @_Z15luaG_ordererrorP9lua_StatePK10lua_TValueS3_3TMS(ptr noundef %18, ptr noundef %19, ptr noundef %20, i32 noundef 17) #12
  unreachable

21:                                               ; preds = %3
  %22 = load ptr, ptr %6, align 8, !tbaa !4
  %23 = getelementptr inbounds nuw %struct.lua_TValue, ptr %22, i32 0, i32 2
  %24 = load i32, ptr %23, align 4, !tbaa !9
  %25 = icmp eq i32 %24, 3
  br i1 %25, label %26, label %35

26:                                               ; preds = %21
  %27 = load ptr, ptr %6, align 8, !tbaa !4
  %28 = getelementptr inbounds nuw %struct.lua_TValue, ptr %27, i32 0, i32 0
  %29 = load double, ptr %28, align 8, !tbaa !12
  %30 = load ptr, ptr %7, align 8, !tbaa !4
  %31 = getelementptr inbounds nuw %struct.lua_TValue, ptr %30, i32 0, i32 0
  %32 = load double, ptr %31, align 8, !tbaa !12
  %33 = fcmp ole double %29, %32
  %34 = zext i1 %33 to i32
  store i32 %34, ptr %4, align 4
  store i32 1, ptr %9, align 4
  br label %77

35:                                               ; preds = %21
  %36 = load ptr, ptr %6, align 8, !tbaa !4
  %37 = getelementptr inbounds nuw %struct.lua_TValue, ptr %36, i32 0, i32 2
  %38 = load i32, ptr %37, align 4, !tbaa !9
  %39 = icmp eq i32 %38, 5
  br i1 %39, label %40, label %50

40:                                               ; preds = %35
  %41 = load ptr, ptr %6, align 8, !tbaa !4
  %42 = getelementptr inbounds nuw %struct.lua_TValue, ptr %41, i32 0, i32 0
  %43 = load ptr, ptr %42, align 8, !tbaa !12
  %44 = load ptr, ptr %7, align 8, !tbaa !4
  %45 = getelementptr inbounds nuw %struct.lua_TValue, ptr %44, i32 0, i32 0
  %46 = load ptr, ptr %45, align 8, !tbaa !12
  %47 = call noundef i32 @_Z11luaV_strcmpPK7TStringS1_(ptr noundef %43, ptr noundef %46)
  %48 = icmp sle i32 %47, 0
  %49 = zext i1 %48 to i32
  store i32 %49, ptr %4, align 4
  store i32 1, ptr %9, align 4
  br label %77

50:                                               ; preds = %35
  %51 = load ptr, ptr %5, align 8, !tbaa !15
  %52 = load ptr, ptr %6, align 8, !tbaa !4
  %53 = load ptr, ptr %7, align 8, !tbaa !4
  %54 = call noundef i32 @_ZL12call_orderTMP9lua_StatePK10lua_TValueS3_3TMSb(ptr noundef %51, ptr noundef %52, ptr noundef %53, i32 noundef 17, i1 noundef zeroext false)
  store i32 %54, ptr %8, align 4, !tbaa !19
  %55 = icmp ne i32 %54, -1
  br i1 %55, label %56, label %58

56:                                               ; preds = %50
  %57 = load i32, ptr %8, align 4, !tbaa !19
  store i32 %57, ptr %4, align 4
  store i32 1, ptr %9, align 4
  br label %77

58:                                               ; preds = %50
  %59 = load ptr, ptr %5, align 8, !tbaa !15
  %60 = load ptr, ptr %7, align 8, !tbaa !4
  %61 = load ptr, ptr %6, align 8, !tbaa !4
  %62 = call noundef i32 @_ZL12call_orderTMP9lua_StatePK10lua_TValueS3_3TMSb(ptr noundef %59, ptr noundef %60, ptr noundef %61, i32 noundef 16, i1 noundef zeroext false)
  store i32 %62, ptr %8, align 4, !tbaa !19
  %63 = icmp eq i32 %62, -1
  br i1 %63, label %64, label %68

64:                                               ; preds = %58
  %65 = load ptr, ptr %5, align 8, !tbaa !15
  %66 = load ptr, ptr %6, align 8, !tbaa !4
  %67 = load ptr, ptr %7, align 8, !tbaa !4
  call void @_Z15luaG_ordererrorP9lua_StatePK10lua_TValueS3_3TMS(ptr noundef %65, ptr noundef %66, ptr noundef %67, i32 noundef 17) #12
  unreachable

68:                                               ; preds = %58
  br label %69

69:                                               ; preds = %68
  br label %70

70:                                               ; preds = %69
  br label %71

71:                                               ; preds = %70
  br label %72

72:                                               ; preds = %71
  %73 = load i32, ptr %8, align 4, !tbaa !19
  %74 = icmp ne i32 %73, 0
  %75 = xor i1 %74, true
  %76 = zext i1 %75 to i32
  store i32 %76, ptr %4, align 4
  store i32 1, ptr %9, align 4
  br label %77

77:                                               ; preds = %72, %56, %40, %26
  call void @llvm.lifetime.end.p0(i64 4, ptr %8) #11
  %78 = load i32, ptr %4, align 4
  ret i32 %78
}