; Function Attrs: mustprogress uwtable
define hidden noundef range(i32 0, 2) i32 @_Z14luaV_lessequalP9lua_StatePK10lua_TValueS3_(ptr noundef %0, ptr noundef %1, ptr noundef %2) local_unnamed_addr #0 {
  %4 = getelementptr inbounds nuw i8, ptr %1, i64 12
  %5 = load i32, ptr %4, align 4, !tbaa !4
  %6 = getelementptr inbounds nuw i8, ptr %2, i64 12
  %7 = load i32, ptr %6, align 4, !tbaa !4
  %.not = icmp eq i32 %5, %7
  br i1 %.not, label %9, label %8

8:                                                ; preds = %3
  tail call void @_Z15luaG_ordererrorP9lua_StatePK10lua_TValueS3_3TMS(ptr noundef %0, ptr noundef nonnull %1, ptr noundef nonnull %2, i32 noundef 17) #12
  unreachable

9:                                                ; preds = %3
  switch i32 %5, label %39 [
    i32 3, label %10
    i32 5, label %15
  ]

10:                                               ; preds = %9
  %11 = load double, ptr %1, align 8, !tbaa !9
  %12 = load double, ptr %2, align 8, !tbaa !9
  %13 = fcmp ole double %11, %12
  %14 = zext i1 %13 to i32
  br label %47

15:                                               ; preds = %9
  %16 = load ptr, ptr %1, align 8, !tbaa !9
  %17 = load ptr, ptr %2, align 8, !tbaa !9
  %18 = icmp eq ptr %16, %17
  br i1 %18, label %_Z11luaV_strcmpPK7TStringS1_.exit, label %19

19:                                               ; preds = %15
  %20 = getelementptr inbounds nuw i8, ptr %16, i64 24
  %21 = getelementptr inbounds nuw i8, ptr %17, i64 24
  %22 = load i8, ptr %20, align 1, !tbaa !9
  %23 = load i8, ptr %21, align 1, !tbaa !9
  %.not.i = icmp eq i8 %22, %23
  br i1 %.not.i, label %28, label %24

24:                                               ; preds = %19
  %25 = zext i8 %22 to i32
  %26 = zext i8 %23 to i32
  %27 = sub nsw i32 %25, %26
  br label %_Z11luaV_strcmpPK7TStringS1_.exit

28:                                               ; preds = %19
  %29 = getelementptr inbounds nuw i8, ptr %16, i64 20
  %30 = load i32, ptr %29, align 4, !tbaa !40
  %31 = getelementptr inbounds nuw i8, ptr %17, i64 20
  %32 = load i32, ptr %31, align 4, !tbaa !40
  %33 = tail call i32 @llvm.umin.i32(i32 %30, i32 %32)
  %34 = zext i32 %33 to i64
  %35 = tail call i32 @memcmp(ptr noundef nonnull readonly %20, ptr noundef nonnull readonly %21, i64 noundef %34) #13
  %.not26.i = icmp eq i32 %35, 0
  %36 = tail call i32 @llvm.ucmp.i32.i32(i32 %30, i32 %32)
  %.2.i = select i1 %.not26.i, i32 %36, i32 %35
  br label %_Z11luaV_strcmpPK7TStringS1_.exit

_Z11luaV_strcmpPK7TStringS1_.exit:                ; preds = %15, %24, %28
  %.0.i = phi i32 [ 0, %15 ], [ %27, %24 ], [ %.2.i, %28 ]
  %37 = icmp slt i32 %.0.i, 1
  %38 = zext i1 %37 to i32
  br label %47

39:                                               ; preds = %9
  %40 = tail call fastcc noundef i32 @_ZL12call_orderTMP9lua_StatePK10lua_TValueS3_3TMSb(ptr noundef %0, ptr noundef nonnull %1, ptr noundef nonnull %2, i32 noundef 17, i1 noundef zeroext false)
  %.not25 = icmp eq i32 %40, -1
  br i1 %.not25, label %41, label %47

41:                                               ; preds = %39
  %42 = tail call fastcc noundef i32 @_ZL12call_orderTMP9lua_StatePK10lua_TValueS3_3TMSb(ptr noundef %0, ptr noundef nonnull %2, ptr noundef nonnull %1, i32 noundef 16, i1 noundef zeroext false)
  %43 = icmp eq i32 %42, -1
  br i1 %43, label %44, label %45

44:                                               ; preds = %41
  tail call void @_Z15luaG_ordererrorP9lua_StatePK10lua_TValueS3_3TMS(ptr noundef %0, ptr noundef nonnull %1, ptr noundef nonnull %2, i32 noundef 17) #12
  unreachable

45:                                               ; preds = %41
  %.not26 = icmp eq i32 %42, 0
  %46 = zext i1 %.not26 to i32
  br label %47

47:                                               ; preds = %39, %45, %_Z11luaV_strcmpPK7TStringS1_.exit, %10
  %.0 = phi i32 [ %14, %10 ], [ %38, %_Z11luaV_strcmpPK7TStringS1_.exit ], [ %46, %45 ], [ %40, %39 ]
  ret i32 %.0
}